target datalayout = "e-m:e-p270:32:32-p271:32:32-p272:64:64-i64:64-i128:128-f80:128-n8:16:32:64-S128"
target triple = "x86_64-pc-linux-gnu"

%struct.circ_state = type { %struct.blocklist_t, i32, i32, i32, i32, ptr, ptr, double }
%struct.blocklist_t = type { ptr, ptr }
%struct.agxbuf = type { %union.anon.4 }
%union.anon.4 = type { %struct.anon.5 }
%struct.anon.5 = type { ptr, i64, i64, [7 x i8], i8 }

@.str.2 = private unnamed_addr constant [10 x i8] c"_block_%d\00", align 1
@.str.3 = private unnamed_addr constant [13 x i8] c"Agraphinfo_t\00", align 1

; Function Attrs: inlinehint nounwind uwtable
define internal i64 @agxbsizeof(ptr noundef %0) #5 {
  %2 = alloca i64, align 8
  %3 = alloca ptr, align 8
  store ptr %0, ptr %3, align 8, !tbaa !8
  %4 = load ptr, ptr %3, align 8, !tbaa !8
  %5 = call zeroext i1 @agxbuf_is_inline(ptr noundef %4)
  br i1 %5, label %6, label %7

6:                                                ; preds = %1
  store i64 31, ptr %2, align 8
  br label %12

7:                                                ; preds = %1
  %8 = load ptr, ptr %3, align 8, !tbaa !8
  %9 = getelementptr inbounds nuw %struct.agxbuf, ptr %8, i32 0, i32 0
  %10 = getelementptr inbounds nuw %struct.anon.5, ptr %9, i32 0, i32 2
  %11 = load i64, ptr %10, align 8, !tbaa !42
  store i64 %11, ptr %2, align 8
  br label %12

12:                                               ; preds = %7, %6
  %13 = load i64, ptr %2, align 8
  ret i64 %13
}

; Function Attrs: inlinehint nounwind uwtable
define internal ptr @agxbstart(ptr noundef %0) #5 {
  %2 = alloca ptr, align 8
  store ptr %0, ptr %2, align 8, !tbaa !8
  %3 = load ptr, ptr %2, align 8, !tbaa !8
  %4 = call zeroext i1 @agxbuf_is_inline(ptr noundef %3)
  br i1 %4, label %5, label %9

5:                                                ; preds = %1
  %6 = load ptr, ptr %2, align 8, !tbaa !8
  %7 = getelementptr inbounds nuw %struct.agxbuf, ptr %6, i32 0, i32 0
  %8 = getelementptr inbounds [31 x i8], ptr %7, i64 0, i64 0
  br label %14

9:                                                ; preds = %1
  %10 = load ptr, ptr %2, align 8, !tbaa !8
  %11 = getelementptr inbounds nuw %struct.agxbuf, ptr %10, i32 0, i32 0
  %12 = getelementptr inbounds nuw %struct.anon.5, ptr %11, i32 0, i32 0
  %13 = load ptr, ptr %12, align 8, !tbaa !42
  br label %14

14:                                               ; preds = %9, %5
  %15 = phi ptr [ %8, %5 ], [ %13, %9 ]
  ret ptr %15
}

; Function Attrs: inlinehint nounwind uwtable
define internal void @agxbclear(ptr noundef %0) #5 {
  %2 = alloca ptr, align 8
  store ptr %0, ptr %2, align 8, !tbaa !8
  %3 = load ptr, ptr %2, align 8, !tbaa !8
  %4 = call zeroext i1 @agxbuf_is_inline(ptr noundef %3)
  br i1 %4, label %5, label %9

5:                                                ; preds = %1
  %6 = load ptr, ptr %2, align 8, !tbaa !8
  %7 = getelementptr inbounds nuw %struct.agxbuf, ptr %6, i32 0, i32 0
  %8 = getelementptr inbounds nuw %struct.anon.5, ptr %7, i32 0, i32 4
  store i8 0, ptr %8, align 1, !tbaa !42
  br label %13

9:                                                ; preds = %1
  %10 = load ptr, ptr %2, align 8, !tbaa !8
  %11 = getelementptr inbounds nuw %struct.agxbuf, ptr %10, i32 0, i32 0
  %12 = getelementptr inbounds nuw %struct.anon.5, ptr %11, i32 0, i32 1
  store i64 0, ptr %12, align 8, !tbaa !42
  br label %13

13:                                               ; preds = %9, %5
  ret void
}

; Function Attrs: inlinehint nounwind uwtable
define internal i32 @agxbputc(ptr noundef %0, i8 noundef signext %1) #5 {
  %3 = alloca ptr, align 8
  %4 = alloca i8, align 1
  %5 = alloca i64, align 8
  store ptr %0, ptr %3, align 8, !tbaa !8
  store i8 %1, ptr %4, align 1, !tbaa !42
  %6 = load ptr, ptr %3, align 8, !tbaa !8
  %7 = call i64 @agxblen(ptr noundef %6)
  %8 = load ptr, ptr %3, align 8, !tbaa !8
  %9 = call i64 @agxbsizeof(ptr noundef %8)
  %10 = icmp uge i64 %7, %9
  br i1 %10, label %11, label %13

11:                                               ; preds = %2
  %12 = load ptr, ptr %3, align 8, !tbaa !8
  call void @agxbmore(ptr noundef %12, i64 noundef 1)
  br label %13

13:                                               ; preds = %11, %2
  call void @llvm.lifetime.start.p0(i64 8, ptr %5) #12
  %14 = load ptr, ptr %3, align 8, !tbaa !8
  %15 = call i64 @agxblen(ptr noundef %14)
  store i64 %15, ptr %5, align 8, !tbaa !83
  %16 = load ptr, ptr %3, align 8, !tbaa !8
  %17 = call zeroext i1 @agxbuf_is_inline(ptr noundef %16)
  br i1 %17, label %18, label %29

18:                                               ; preds = %13
  %19 = load i8, ptr %4, align 1, !tbaa !42
  %20 = load ptr, ptr %3, align 8, !tbaa !8
  %21 = getelementptr inbounds nuw %struct.agxbuf, ptr %20, i32 0, i32 0
  %22 = load i64, ptr %5, align 8, !tbaa !83
  %23 = getelementptr inbounds nuw [31 x i8], ptr %21, i64 0, i64 %22
  store i8 %19, ptr %23, align 1, !tbaa !42
  %24 = load ptr, ptr %3, align 8, !tbaa !8
  %25 = getelementptr inbounds nuw %struct.agxbuf, ptr %24, i32 0, i32 0
  %26 = getelementptr inbounds nuw %struct.anon.5, ptr %25, i32 0, i32 4
  %27 = load i8, ptr %26, align 1, !tbaa !42
  %28 = add i8 %27, 1
  store i8 %28, ptr %26, align 1, !tbaa !42
  br label %42

29:                                               ; preds = %13
  %30 = load i8, ptr %4, align 1, !tbaa !42
  %31 = load ptr, ptr %3, align 8, !tbaa !8
  %32 = getelementptr inbounds nuw %struct.agxbuf, ptr %31, i32 0, i32 0
  %33 = getelementptr inbounds nuw %struct.anon.5, ptr %32, i32 0, i32 0
  %34 = load ptr, ptr %33, align 8, !tbaa !42
  %35 = load i64, ptr %5, align 8, !tbaa !83
  %36 = getelementptr inbounds nuw i8, ptr %34, i64 %35
  store i8 %30, ptr %36, align 1, !tbaa !42
  %37 = load ptr, ptr %3, align 8, !tbaa !8
  %38 = getelementptr inbounds nuw %struct.agxbuf, ptr %37, i32 0, i32 0
  %39 = getelementptr inbounds nuw %struct.anon.5, ptr %38, i32 0, i32 1
  %40 = load i64, ptr %39, align 8, !tbaa !42
  %41 = add i64 %40, 1
  store i64 %41, ptr %39, align 8, !tbaa !42
  br label %42

42:                                               ; preds = %29, %18
  call void @llvm.lifetime.end.p0(i64 8, ptr %5) #12
  ret i32 0
}

; Function Attrs: inlinehint nounwind uwtable
define internal i64 @agxblen(ptr noundef %0) #5 {
  %2 = alloca i64, align 8
  %3 = alloca ptr, align 8
  store ptr %0, ptr %3, align 8, !tbaa !8
  %4 = load ptr, ptr %3, align 8, !tbaa !8
  %5 = call zeroext i1 @agxbuf_is_inline(ptr noundef %4)
  br i1 %5, label %6, label %14

6:                                                ; preds = %1
  %7 = load ptr, ptr %3, align 8, !tbaa !8
  %8 = getelementptr inbounds nuw %struct.agxbuf, ptr %7, i32 0, i32 0
  %9 = getelementptr inbounds nuw %struct.anon.5, ptr %8, i32 0, i32 4
  %10 = load i8, ptr %9, align 1, !tbaa !42
  %11 = zext i8 %10 to i32
  %12 = sub nsw i32 %11, 0
  %13 = sext i32 %12 to i64
  store i64 %13, ptr %2, align 8
  br label %19

14:                                               ; preds = %1
  %15 = load ptr, ptr %3, align 8, !tbaa !8
  %16 = getelementptr inbounds nuw %struct.agxbuf, ptr %15, i32 0, i32 0
  %17 = getelementptr inbounds nuw %struct.anon.5, ptr %16, i32 0, i32 1
  %18 = load i64, ptr %17, align 8, !tbaa !42
  store i64 %18, ptr %2, align 8
  br label %19

19:                                               ; preds = %14, %6
  %20 = load i64, ptr %2, align 8
  ret i64 %20
}

; Function Attrs: inlinehint nounwind uwtable
define internal zeroext i1 @agxbuf_is_inline(ptr noundef %0) #5 {
  %2 = alloca ptr, align 8
  store ptr %0, ptr %2, align 8, !tbaa !8
  %3 = load ptr, ptr %2, align 8, !tbaa !8
  %4 = getelementptr inbounds nuw %struct.agxbuf, ptr %3, i32 0, i32 0
  %5 = getelementptr inbounds nuw %struct.anon.5, ptr %4, i32 0, i32 4
  %6 = load i8, ptr %5, align 1, !tbaa !42
  %7 = zext i8 %6 to i32
  %8 = icmp slt i32 %7, 255
  ret i1 %8
}

; Function Attrs: inlinehint nounwind uwtable
define internal void @agxbfree(ptr noundef %0) #5 {
  %2 = alloca ptr, align 8
  store ptr %0, ptr %2, align 8, !tbaa !8
  %3 = load ptr, ptr %2, align 8, !tbaa !8
  %4 = getelementptr inbounds nuw %struct.agxbuf, ptr %3, i32 0, i32 0
  %5 = getelementptr inbounds nuw %struct.anon.5, ptr %4, i32 0, i32 4
  %6 = load i8, ptr %5, align 1, !tbaa !42
  %7 = zext i8 %6 to i32
  %8 = icmp eq i32 %7, 255
  br i1 %8, label %9, label %14

9:                                                ; preds = %1
  %10 = load ptr, ptr %2, align 8, !tbaa !8
  %11 = getelementptr inbounds nuw %struct.agxbuf, ptr %10, i32 0, i32 0
  %12 = getelementptr inbounds nuw %struct.anon.5, ptr %11, i32 0, i32 0
  %13 = load ptr, ptr %12, align 8, !tbaa !42
  call void @free(ptr noundef %13) #12
  br label %14

14:                                               ; preds = %9, %1
  ret void
}

; Function Attrs: inlinehint nounwind uwtable
define internal ptr @agxbuse(ptr noundef %0) #5 {
  %2 = alloca ptr, align 8
  store ptr %0, ptr %2, align 8, !tbaa !8
  %3 = load ptr, ptr %2, align 8, !tbaa !8
  %4 = call zeroext i1 @agxbuf_is_inline(ptr noundef %3)
  br i1 %4, label %5, label %9

5:                                                ; preds = %1
  %6 = load ptr, ptr %2, align 8, !tbaa !8
  %7 = call i64 @agxblen(ptr noundef %6)
  %8 = icmp ne i64 %7, 31
  br i1 %8, label %9, label %12

9:                                                ; preds = %5, %1
  %10 = load ptr, ptr %2, align 8, !tbaa !8
  %11 = call i32 @agxbputc(ptr noundef %10, i8 noundef signext 0)
  br label %13

12:                                               ; preds = %5
  br label %13

13:                                               ; preds = %12, %9
  %14 = load ptr, ptr %2, align 8, !tbaa !8
  call void @agxbclear(ptr noundef %14)
  %15 = load ptr, ptr %2, align 8, !tbaa !8
  %16 = call ptr @agxbstart(ptr noundef %15)
  ret ptr %16
}

; Function Attrs: nounwind uwtable
define internal ptr @makeBlockGraph(ptr noundef %0, ptr noundef %1) #0 {
  %3 = alloca ptr, align 8
  %4 = alloca ptr, align 8
  %5 = alloca %struct.agxbuf, align 8
  %6 = alloca ptr, align 8
  store ptr %0, ptr %3, align 8, !tbaa !3
  store ptr %1, ptr %4, align 8, !tbaa !8
  call void @llvm.lifetime.start.p0(i64 32, ptr %5) #12
  call void @llvm.memset.p0.i64(ptr align 8 %5, i8 0, i64 32, i1 false)
  %7 = load ptr, ptr %4, align 8, !tbaa !8
  %8 = getelementptr inbounds nuw %struct.circ_state, ptr %7, i32 0, i32 2
  %9 = load i32, ptr %8, align 4, !tbaa !86
  %10 = add nsw i32 %9, 1
  store i32 %10, ptr %8, align 4, !tbaa !86
  %11 = call i32 (ptr, ptr, ...) @agxbprint(ptr noundef %5, ptr noundef @.str.2, i32 noundef %9)
  call void @llvm.lifetime.start.p0(i64 8, ptr %6) #12
  %12 = load ptr, ptr %3, align 8, !tbaa !3
  %13 = call ptr @agxbuse(ptr noundef %5)
  %14 = call ptr @agsubg(ptr noundef %12, ptr noundef %13, i32 noundef 1)
  store ptr %14, ptr %6, align 8, !tbaa !3
  call void @agxbfree(ptr noundef %5)
  %15 = load ptr, ptr %6, align 8, !tbaa !3
  %16 = call ptr @agbindrec(ptr noundef %15, ptr noundef @.str.3, i32 noundef 400, i32 noundef 1)
  %17 = load ptr, ptr %6, align 8, !tbaa !3
  call void @llvm.lifetime.end.p0(i64 8, ptr %6) #12
  call void @llvm.lifetime.end.p0(i64 32, ptr %5) #12
  ret ptr %17
}

; Function Attrs: nounwind uwtable
define internal ptr @makeBlock(ptr noundef %0, ptr noundef %1) #0 {
  %3 = alloca ptr, align 8
  %4 = alloca ptr, align 8
  %5 = alloca ptr, align 8
  %6 = alloca ptr, align 8
  store ptr %0, ptr %3, align 8, !tbaa !3
  store ptr %1, ptr %4, align 8, !tbaa !8
  call void @llvm.lifetime.start.p0(i64 8, ptr %5) #12
  %7 = load ptr, ptr %3, align 8, !tbaa !3
  %8 = load ptr, ptr %4, align 8, !tbaa !8
  %9 = call ptr @makeBlockGraph(ptr noundef %7, ptr noundef %8)
  store ptr %9, ptr %5, align 8, !tbaa !3
  call void @llvm.lifetime.start.p0(i64 8, ptr %6) #12
  %10 = load ptr, ptr %5, align 8, !tbaa !3
  %11 = call ptr @mkBlock(ptr noundef %10)
  store ptr %11, ptr %6, align 8, !tbaa !17
  %12 = load ptr, ptr %6, align 8, !tbaa !17
  call void @llvm.lifetime.end.p0(i64 8, ptr %6) #12
  call void @llvm.lifetime.end.p0(i64 8, ptr %5) #12
  ret ptr %12
}