; Function Attrs: nounwind uwtable
define internal fastcc ptr @makeBlock(ptr noundef %0, ptr noundef captures(none) %1) unnamed_addr #0 {
  %3 = alloca %struct.agxbuf, align 8
  call void @llvm.lifetime.start.p0(i64 32, ptr nonnull %3) #15
  call void @llvm.memset.p0.i64(ptr noundef nonnull align 8 dereferenceable(32) %3, i8 0, i64 32, i1 false)
  %4 = getelementptr inbounds nuw i8, ptr %1, i64 20
  %5 = load i32, ptr %4, align 4, !tbaa !76
  %6 = add nsw i32 %5, 1
  store i32 %6, ptr %4, align 4, !tbaa !76
  call void (ptr, ptr, ...) @agxbprint(ptr noundef %3, ptr nonnull poison, i32 noundef %5)
  %7 = getelementptr inbounds nuw i8, ptr %3, i64 31
  %.val.i.i = load i8, ptr %7, align 1, !tbaa !34
  switch i8 %.val.i.i, label %agxblen.exit.i.i.i [
    i8 -1, label %9
    i8 31, label %agxbclear.exit.thread.i.i
  ]

agxblen.exit.i.i.i:                               ; preds = %2
  %8 = zext i8 %.val.i.i to i64
  br label %agxbsizeof.exit.i.i.i

9:                                                ; preds = %2
  %10 = getelementptr inbounds nuw i8, ptr %3, i64 8
  %11 = load i64, ptr %10, align 8, !tbaa !34
  %12 = getelementptr inbounds nuw i8, ptr %3, i64 16
  %13 = load i64, ptr %12, align 8, !tbaa !34
  br label %agxbsizeof.exit.i.i.i

agxbsizeof.exit.i.i.i:                            ; preds = %9, %agxblen.exit.i.i.i
  %.0.i20.i.i.i = phi i64 [ %11, %9 ], [ %8, %agxblen.exit.i.i.i ]
  %.0.i14.i.i.i = phi i64 [ %13, %9 ], [ 31, %agxblen.exit.i.i.i ]
  %.not.i5.i.i = icmp ult i64 %.0.i20.i.i.i, %.0.i14.i.i.i
  br i1 %.not.i5.i.i, label %15, label %14

14:                                               ; preds = %agxbsizeof.exit.i.i.i
  call fastcc void @agxbmore(ptr noundef nonnull %3, i64 noundef 1)
  %.val.i15.pre.i.i.i = load i8, ptr %7, align 1, !tbaa !34
  br label %15

15:                                               ; preds = %14, %agxbsizeof.exit.i.i.i
  %.val.i6.pr.i.i = phi i8 [ %.val.i15.pre.i.i.i, %14 ], [ %.val.i.i, %agxbsizeof.exit.i.i.i ]
  %.not.i16.i.i.i = icmp eq i8 %.val.i6.pr.i.i, -1
  br i1 %.not.i16.i.i.i, label %agxbputc.exit.i.thread.i, label %agxbputc.exit.i.i

agxbputc.exit.i.thread.i:                         ; preds = %15
  %16 = getelementptr inbounds nuw i8, ptr %3, i64 8
  %17 = load i64, ptr %16, align 8, !tbaa !34
  %18 = load ptr, ptr %3, align 8, !tbaa !34
  %19 = getelementptr inbounds nuw i8, ptr %18, i64 %17
  store i8 0, ptr %19, align 1, !tbaa !34
  br label %25

agxbputc.exit.i.i:                                ; preds = %15
  %20 = zext i8 %.val.i6.pr.i.i to i64
  %21 = getelementptr inbounds nuw [31 x i8], ptr %3, i64 0, i64 %20
  store i8 0, ptr %21, align 1, !tbaa !34
  %22 = load i8, ptr %7, align 1, !tbaa !34
  %23 = add i8 %22, 1
  store i8 %23, ptr %7, align 1, !tbaa !34
  %24 = icmp eq i8 %23, -1
  br i1 %24, label %agxbputc.exit.i.i._crit_edge, label %agxbclear.exit.thread.i.i

agxbputc.exit.i.i._crit_edge:                     ; preds = %agxbputc.exit.i.i
  %.pre = load ptr, ptr %3, align 8, !tbaa !34
  br label %25

agxbclear.exit.thread.i.i:                        ; preds = %agxbputc.exit.i.i, %2
  store i8 0, ptr %7, align 1, !tbaa !34
  br label %agxbuse.exit.i

25:                                               ; preds = %agxbputc.exit.i.i._crit_edge, %agxbputc.exit.i.thread.i
  %26 = phi ptr [ %.pre, %agxbputc.exit.i.i._crit_edge ], [ %18, %agxbputc.exit.i.thread.i ]
  %27 = getelementptr inbounds nuw i8, ptr %3, i64 8
  store i64 0, ptr %27, align 8, !tbaa !34
  br label %agxbuse.exit.i

agxbuse.exit.i:                                   ; preds = %25, %agxbclear.exit.thread.i.i
  %28 = phi ptr [ %26, %25 ], [ %3, %agxbclear.exit.thread.i.i ]
  %29 = call ptr @agsubg(ptr noundef %0, ptr noundef %28, i32 noundef 1) #15
  %.val4.i = load i8, ptr %7, align 1, !tbaa !34
  %30 = icmp eq i8 %.val4.i, -1
  br i1 %30, label %31, label %makeBlockGraph.exit

31:                                               ; preds = %agxbuse.exit.i
  %.val.i = load ptr, ptr %3, align 8
  call void @free(ptr noundef %.val.i) #15
  br label %makeBlockGraph.exit

makeBlockGraph.exit:                              ; preds = %agxbuse.exit.i, %31
  %32 = call ptr @agbindrec(ptr noundef %29, ptr noundef nonnull @.str.3, i32 noundef 400, i32 noundef 1) #15
  call void @llvm.lifetime.end.p0(i64 32, ptr nonnull %3) #15
  %33 = call ptr @mkBlock(ptr noundef %29) #15
  ret ptr %33
}